; Function Attrs: mustprogress nofree norecurse nosync nounwind willreturn memory(argmem: write) uwtable
define void @_ZN6marisa8grimoire2io6ReaderC2Ev(ptr noundef nonnull writeonly align 8 captures(none) dereferenceable(25) initializes((0, 12), (16, 25)) %0) unnamed_addr #3 align 2 {
  store ptr null, ptr %0, align 8, !tbaa !3
  %2 = getelementptr inbounds nuw i8, ptr %0, i64 8
  store i32 -1, ptr %2, align 8, !tbaa !12
  %3 = getelementptr inbounds nuw i8, ptr %0, i64 16
  store ptr null, ptr %3, align 8, !tbaa !13
  %4 = getelementptr inbounds nuw i8, ptr %0, i64 24
  store i8 0, ptr %4, align 8, !tbaa !14
  ret void
}